; Function Attrs: nounwind sspstrong uwtable
define dso_local void @tcg_gen_nonatomic_cmpxchg_i64_chk(ptr noundef %0, ptr noundef %1, ptr noundef %2, ptr noundef %3, i64 noundef %4, i32 noundef %5, i32 noundef %6) local_unnamed_addr #0 {
  %8 = tail call align 8 ptr @llvm.threadlocal.address.p0(ptr align 8 @tcg_ctx)
  %9 = load ptr, ptr %8, align 8
  %10 = getelementptr inbounds nuw i8, ptr %9, i64 60
  %11 = load i32, ptr %10, align 4
  %12 = icmp eq i32 %6, %11
  tail call void @llvm.assume(i1 %12)
  %13 = and i32 %5, 4
  %14 = icmp eq i32 %13, 0
  tail call void @llvm.assume(i1 %14)
  tail call fastcc void @tcg_gen_nonatomic_cmpxchg_i64_int(ptr noundef %0, ptr noundef %1, ptr noundef %2, ptr noundef %3, i64 noundef %4, i32 noundef %5)
  ret void
}